; Function Attrs: nounwind uwtable
define internal void @pgoutput_shutdown(ptr readnone captures(none) %0) #2 {
  %2 = load ptr, ptr @RelationSyncCache, align 8
  %.not = icmp eq ptr %2, null
  br i1 %.not, label %4, label %3

3:                                                ; preds = %1
  tail call void @hash_destroy(ptr noundef nonnull %2) #13
  store ptr null, ptr @RelationSyncCache, align 8
  br label %4

4:                                                ; preds = %3, %1
  ret void
}